; Function Attrs: mustprogress nofree norecurse nosync nounwind willreturn memory(read, argmem: readwrite, inaccessiblemem: none) uwtable
define internal noundef i32 @cff_cmap_encoding_init(ptr nocapture noundef %0, ptr nocapture readnone %1) #0 {
  %3 = load ptr, ptr %0, align 8
  %4 = getelementptr inbounds i8, ptr %3, i64 1168
  %5 = load ptr, ptr %4, align 8
  %6 = getelementptr inbounds i8, ptr %5, i64 780
  %7 = getelementptr inbounds i8, ptr %0, i64 24
  store ptr %6, ptr %7, align 8
  ret i32 0
}